; Function Attrs: null_pointer_is_valid sspstrong uwtable
define internal i32 @dissect_e2ap_T_ranFunction_ShortName(ptr noundef %0, i32 noundef %1, ptr noundef %2, ptr noundef %3, i32 noundef %4) #2 {
  %6 = alloca ptr, align 8
  call void @llvm.lifetime.start.p0(i64 8, ptr nonnull %6) #12
  %7 = call i32 @dissect_per_PrintableString(ptr noundef %0, i32 noundef %1, ptr noundef %2, ptr noundef %3, i32 noundef %4, i32 noundef 1, i32 noundef 150, i1 noundef zeroext true, ptr noundef nonnull %6)
  %8 = getelementptr inbounds nuw i8, ptr %2, i64 16
  %9 = load ptr, ptr %8, align 8
  %10 = getelementptr inbounds nuw i8, ptr %9, i64 80
  %11 = load ptr, ptr %10, align 8
  %12 = getelementptr inbounds nuw i8, ptr %11, i64 57
  %13 = load i16, ptr %12, align 1
  %14 = and i16 %13, 8
  %.not = icmp eq i16 %14, 0
  br i1 %.not, label %15, label %21

15:                                               ; preds = %5
  %16 = load ptr, ptr %6, align 8
  %17 = getelementptr inbounds nuw i8, ptr %9, i64 408
  %18 = load ptr, ptr %17, align 8
  %19 = call i32 @tvb_captured_length(ptr noundef %16)
  %20 = call ptr @tvb_get_string_enc(ptr noundef %18, ptr noundef %16, i32 noundef 0, i32 noundef %19, i32 noundef 0)
  call void @e2ap_store_ran_function_mapping(ptr noundef %9, ptr noundef %3, ptr noundef %16, ptr noundef %20)
  br label %21

21:                                               ; preds = %15, %5
  call void @llvm.lifetime.end.p0(i64 8, ptr nonnull %6) #12
  ret i32 %7
}